; Function Attrs: nounwind uwtable
define nonnull ptr @l_Array_forIn_x27Unsafe_loop___at_Lean_Elab_Structural_addSmartUnfoldingDefAux_visit___spec__6___lambda__1___boxed(ptr noundef %0) #0 {
  %2 = tail call ptr @l_Lean_Meta_smartUnfoldingMatch_x3f(ptr noundef %0) #5
  %3 = ptrtoint ptr %2 to i64
  %4 = and i64 %3, 1
  %.not.i5.i = icmp eq i64 %4, 0
  br i1 %.not.i5.i, label %lean_obj_tag.exit.thread.i, label %lean_obj_tag.exit.i

lean_obj_tag.exit.i:                              ; preds = %1
  %5 = and i64 %3, 8589934590
  %.not3 = icmp eq i64 %5, 0
  %6 = select i1 %.not3, i64 1, i64 3
  br label %l_Array_forIn_x27Unsafe_loop___at_Lean_Elab_Structural_addSmartUnfoldingDefAux_visit___spec__6___lambda__1.exit

lean_obj_tag.exit.thread.i:                       ; preds = %1
  %7 = getelementptr i8, ptr %2, i64 4
  %.val.i.i = load i32, ptr %7, align 4
  %8 = icmp ult i32 %.val.i.i, 16777216
  br i1 %8, label %l_Array_forIn_x27Unsafe_loop___at_Lean_Elab_Structural_addSmartUnfoldingDefAux_visit___spec__6___lambda__1.exit, label %.thread.i

.thread.i:                                        ; preds = %lean_obj_tag.exit.thread.i
  %9 = load i32, ptr %2, align 4, !tbaa !4
  %10 = icmp sgt i32 %9, 1
  br i1 %10, label %11, label %13, !prof !9

11:                                               ; preds = %.thread.i
  %12 = add nsw i32 %9, -1
  store i32 %12, ptr %2, align 4, !tbaa !4
  br label %l_Array_forIn_x27Unsafe_loop___at_Lean_Elab_Structural_addSmartUnfoldingDefAux_visit___spec__6___lambda__1.exit

13:                                               ; preds = %.thread.i
  %.not.i.i = icmp eq i32 %9, 0
  br i1 %.not.i.i, label %l_Array_forIn_x27Unsafe_loop___at_Lean_Elab_Structural_addSmartUnfoldingDefAux_visit___spec__6___lambda__1.exit, label %14

14:                                               ; preds = %13
  tail call void @lean_dec_ref_cold(ptr noundef nonnull %2) #5
  br label %l_Array_forIn_x27Unsafe_loop___at_Lean_Elab_Structural_addSmartUnfoldingDefAux_visit___spec__6___lambda__1.exit

l_Array_forIn_x27Unsafe_loop___at_Lean_Elab_Structural_addSmartUnfoldingDefAux_visit___spec__6___lambda__1.exit: ; preds = %lean_obj_tag.exit.i, %lean_obj_tag.exit.thread.i, %11, %13, %14
  %.0.i = phi i64 [ 1, %lean_obj_tag.exit.thread.i ], [ 3, %14 ], [ 3, %13 ], [ 3, %11 ], [ %6, %lean_obj_tag.exit.i ]
  %15 = ptrtoint ptr %0 to i64
  %16 = and i64 %15, 1
  %.not = icmp eq i64 %16, 0
  br i1 %.not, label %17, label %lean_dec.exit

17:                                               ; preds = %l_Array_forIn_x27Unsafe_loop___at_Lean_Elab_Structural_addSmartUnfoldingDefAux_visit___spec__6___lambda__1.exit
  %18 = load i32, ptr %0, align 4, !tbaa !4
  %19 = icmp sgt i32 %18, 1
  br i1 %19, label %20, label %22, !prof !9

20:                                               ; preds = %17
  %21 = add nsw i32 %18, -1
  store i32 %21, ptr %0, align 4, !tbaa !4
  br label %lean_dec.exit

22:                                               ; preds = %17
  %.not.i = icmp eq i32 %18, 0
  br i1 %.not.i, label %lean_dec.exit, label %23

23:                                               ; preds = %22
  tail call void @lean_dec_ref_cold(ptr noundef nonnull %0) #5
  br label %lean_dec.exit

lean_dec.exit:                                    ; preds = %23, %22, %20, %l_Array_forIn_x27Unsafe_loop___at_Lean_Elab_Structural_addSmartUnfoldingDefAux_visit___spec__6___lambda__1.exit
  %24 = inttoptr i64 %.0.i to ptr
  ret ptr %24
}